Certificate:
    Data:
        Version: 3 (0x2)
        Serial Number:
            32:5d:0f:8b:6a:0b:a7:b5:3e:59:df:5b:30:97:b1:b2
        Signature Algorithm: sha256WithRSAEncryption
        Issuer: C=RU, ST=Moscow State, O=BMSTU, OU=IU4-XX, CN=Anykey Skywalker
        Validity
            Not Before: Nov 22 23:28:02 2024 GMT
            Not After : Nov 20 23:28:02 2034 GMT
        Subject: C=RU, ST=Moscow State, O=BMSTU, OU=IU4-XX, CN=Anykey Skywalker
        Subject Public Key Info:
            Public Key Algorithm: rsaEncryption
                Public-Key: (4096 bit)
                Modulus:
                    00:b5:68:4c:8d:01:98:81:59:b5:09:a9:d9:e7:7d:
                    0a:7f:2c:08:b1:48:45:97:8e:d2:96:fb:96:58:f4:
                    6b:48:f0:1b:fb:0c:89:ff:57:46:d2:7c:b6:6a:78:
                    8b:82:23:02:26:d5:91:9b:a2:a5:f6:f5:5e:63:2b:
                    27:1c:aa:68:b7:a4:75:c0:2e:9f:28:54:b1:da:2e:
                    50:75:74:e1:ce:2d:f4:45:28:72:be:89:77:5f:59:
                    d1:f8:86:d9:22:e3:f3:8f:02:bf:34:c4:4d:6d:b3:
                    2a:c1:9d:3b:7c:e4:24:bd:34:83:90:ec:75:b0:a3:
                    a2:9d:ee:72:48:6c:f1:66:f5:77:03:f8:8b:e2:4c:
                    d2:28:bc:23:c2:9f:4f:4f:de:5d:5b:07:3d:08:09:
                    5f:bf:15:f4:98:23:72:58:12:63:e7:32:c5:a1:5d:
                    24:3f:3a:8c:d5:46:3c:e9:f6:2a:f7:e0:d4:47:c8:
                    b9:42:6c:8b:2c:cf:1e:79:37:b3:85:f6:20:81:b4:
                    d7:a5:90:46:bf:33:22:ac:83:92:95:a6:27:78:c3:
                    42:6a:30:a3:ff:0d:0d:83:c3:e1:54:f3:fc:52:25:
                    0e:ff:ff:5e:25:d7:4b:36:c1:a4:14:0b:b9:02:cc:
                    43:6b:df:92:09:b0:fc:34:6a:c1:04:b8:83:8e:65:
                    a0:91:06:f7:6e:5c:7d:72:9d:70:16:ef:e9:d6:9e:
                    86:98:dd:34:e8:b7:4d:ad:5a:e0:a5:fd:90:42:90:
                    21:79:1a:e2:1c:de:5d:4f:fa:5d:85:e8:aa:31:62:
                    cb:77:22:b2:42:da:ad:90:6b:5e:b5:86:dc:76:b3:
                    da:b2:f2:fb:6f:77:da:97:e8:ea:83:55:1d:50:08:
                    e5:39:79:cb:23:4b:96:b8:6f:b6:b4:fd:de:e2:29:
                    ff:f7:95:0f:eb:c9:47:bc:1d:8b:08:ac:ca:c2:22:
                    cf:01:c0:09:05:fc:af:16:bd:86:70:2f:d1:bc:f7:
                    ac:2b:4c:f3:c9:a0:23:92:2b:25:cb:df:7e:1b:5e:
                    41:65:de:4a:78:81:df:5a:ad:08:0b:c4:89:cb:50:
                    83:75:54:c5:ee:73:85:8c:39:20:30:da:84:8f:b0:
                    cb:8b:04:54:2b:96:10:c7:38:71:82:db:8b:ed:e5:
                    04:3c:b5:b6:9d:8f:bd:db:dc:c1:81:6b:e0:2a:93:
                    18:50:61:89:6e:bd:bd:e5:b7:81:38:f3:3f:31:6b:
                    4b:23:7c:37:e5:2b:2c:3e:1a:c7:8e:28:0f:d0:3f:
                    31:6f:29:f0:f3:e3:49:b9:e6:42:48:92:50:95:bb:
                    ec:45:a9:e3:eb:3e:19:2d:78:68:8d:2e:0b:61:66:
                    f2:6a:7b
                Exponent: 65537 (0x10001)
        X509v3 extensions:
            X509v3 Subject Key Identifier: 
                EF:5D:2F:29:3A:09:45:DF:0A:9C:DD:EB:B0:56:D4:9E:EB:4E:8E:DA
            X509v3 Authority Key Identifier: 
                EF:5D:2F:29:3A:09:45:DF:0A:9C:DD:EB:B0:56:D4:9E:EB:4E:8E:DA
            X509v3 Basic Constraints: critical
                CA:TRUE
            X509v3 Key Usage: critical
                Digital Signature, Certificate Sign, CRL Sign
    Signature Algorithm: sha256WithRSAEncryption
    Signature Value:
        1d:8c:5d:bb:32:28:9b:d2:70:c4:a5:9c:ee:48:01:f4:73:8f:
        3a:47:44:e0:e2:fc:b8:4d:e9:25:be:96:9d:cd:14:ca:24:cb:
        a0:5f:1b:cf:53:37:c8:67:fc:e1:b4:93:66:18:43:bb:a2:7f:
        63:08:b5:29:cf:1e:56:fe:5d:00:ca:83:b2:0b:32:0d:8d:0d:
        a6:04:cd:ec:a2:fa:b8:f5:ef:5a:66:eb:ee:09:3e:b7:69:64:
        a8:bb:62:b0:bf:27:13:3e:57:6f:c7:dd:17:cf:2f:7c:84:7c:
        d1:be:57:bf:e0:3a:0a:5a:5f:1d:ea:d1:bd:34:75:31:f7:62:
        c3:8d:46:75:ca:6e:e9:c2:9b:0f:79:a6:a1:1c:32:dd:54:d1:
        f5:39:ff:47:a2:70:1d:e2:af:34:b5:b3:24:97:4f:d3:5e:cf:
        a5:6f:b9:49:3f:0d:99:59:59:01:80:ab:47:51:c3:ba:f4:8a:
        b5:c3:4e:33:2c:db:69:d6:2c:94:29:b5:77:34:98:78:3b:f7:
        b0:07:7b:25:52:fc:44:84:d9:f8:6b:3e:cd:37:ab:9d:52:16:
        00:0a:47:e3:0f:37:2a:49:77:fe:fa:21:39:4d:9c:d5:a1:32:
        29:b2:9a:c0:9f:90:16:d6:e5:b2:2a:f1:4e:96:8f:1e:b6:8a:
        bb:cf:14:d8:0b:3b:95:9c:a9:40:30:21:50:8b:a9:6f:7d:6f:
        60:a3:6c:77:5e:89:8a:c8:ca:a1:66:ca:30:8e:bc:96:dc:88:
        b1:5c:7a:58:5d:2c:0a:48:ac:f1:11:a5:96:6a:ea:59:03:f0:
        41:d0:3f:92:d5:e2:aa:8e:df:59:62:63:14:f8:5b:ac:9c:be:
        23:f8:1a:b7:03:b9:f6:0c:6a:6f:94:a1:03:b4:b4:61:a5:5f:
        7f:6a:a0:9b:3e:ba:28:80:48:4d:f9:dd:65:55:61:b5:e9:3d:
        e9:82:43:f9:4d:9c:97:3f:4d:ff:c3:95:06:f5:3a:7f:67:5e:
        05:10:88:c6:fa:81:78:ed:51:5f:0d:5d:28:68:59:43:48:65:
        0e:4a:66:24:d4:3b:81:ff:85:91:a9:34:d0:38:45:e6:a2:b9:
        82:33:94:f2:37:b2:ef:32:45:a6:d1:ed:e7:c1:78:0c:98:97:
        09:5f:15:17:13:e8:71:93:db:e8:f1:01:58:57:18:72:f9:9e:
        3d:7c:7a:55:f6:7a:55:88:c3:31:77:26:aa:29:dc:e2:da:ac:
        8d:ca:9d:51:42:d3:9f:d9:b8:3e:bc:31:a3:9e:8e:23:6f:ee:
        19:06:5c:55:dd:d3:f7:dd:8f:c9:05:62:77:29:bc:47:c2:ca:
        c3:9e:46:f5:2a:21:fd:fe
-----BEGIN CERTIFICATE-----
MIIFrTCCA5WgAwIBAgIQMl0Pi2oLp7U+Wd9bMJexsjANBgkqhkiG9w0BAQsFADBg
MQswCQYDVQQGEwJSVTEVMBMGA1UECAwMTW9zY293IFN0YXRlMQ4wDAYDVQQKDAVC
TVNUVTEPMA0GA1UECwwGSVU0LVhYMRkwFwYDVQQDDBBBbnlrZXkgU2t5d2Fsa2Vy
MB4XDTI0MTEyMjIzMjgwMloXDTM0MTEyMDIzMjgwMlowYDELMAkGA1UEBhMCUlUx
FTATBgNVBAgMDE1vc2NvdyBTdGF0ZTEOMAwGA1UECgwFQk1TVFUxDzANBgNVBAsM
BklVNC1YWDEZMBcGA1UEAwwQQW55a2V5IFNreXdhbGtlcjCCAiIwDQYJKoZIhvcN
AQEBBQADggIPADCCAgoCggIBALVoTI0BmIFZtQmp2ed9Cn8sCLFIRZeO0pb7llj0
a0jwG/sMif9XRtJ8tmp4i4IjAibVkZuipfb1XmMrJxyqaLekdcAunyhUsdouUHV0
4c4t9EUocr6Jd19Z0fiG2SLj848CvzTETW2zKsGdO3zkJL00g5DsdbCjop3uckhs
8Wb1dwP4i+JM0ii8I8KfT0/eXVsHPQgJX78V9JgjclgSY+cyxaFdJD86jNVGPOn2
Kvfg1EfIuUJsiyzPHnk3s4X2IIG016WQRr8zIqyDkpWmJ3jDQmowo/8NDYPD4VTz
/FIlDv//XiXXSzbBpBQLuQLMQ2vfkgmw/DRqwQS4g45loJEG925cfXKdcBbv6dae
hpjdNOi3Ta1a4KX9kEKQIXka4hzeXU/6XYXoqjFiy3ciskLarZBrXrWG3Haz2rLy
+2932pfo6oNVHVAI5Tl5yyNLlrhvtrT93uIp//eVD+vJR7wdiwisysIizwHACQX8
rxa9hnAv0bz3rCtM88mgI5IrJcvffhteQWXeSniB31qtCAvEictQg3VUxe5zhYw5
IDDahI+wy4sEVCuWEMc4cYLbi+3lBDy1tp2PvdvcwYFr4CqTGFBhiW69veW3gTjz
PzFrSyN8N+UrLD4ax44oD9A/MW8p8PPjSbnmQkiSUJW77EWp4+s+GS14aI0uC2Fm
8mp7AgMBAAGjYzBhMB0GA1UdDgQWBBTvXS8pOglF3wqc3euwVtSe606O2jAfBgNV
HSMEGDAWgBTvXS8pOglF3wqc3euwVtSe606O2jAPBgNVHRMBAf8EBTADAQH/MA4G
A1UdDwEB/wQEAwIBhjANBgkqhkiG9w0BAQsFAAOCAgEAHYxduzIom9JwxKWc7kgB
9HOPOkdE4OL8uE3pJb6Wnc0UyiTLoF8bz1M3yGf84bSTZhhDu6J/Ywi1Kc8eVv5d
AMqDsgsyDY0NpgTN7KL6uPXvWmbr7gk+t2lkqLtisL8nEz5Xb8fdF88vfIR80b5X
v+A6ClpfHerRvTR1Mfdiw41Gdcpu6cKbD3mmoRwy3VTR9Tn/R6JwHeKvNLWzJJdP
017PpW+5ST8NmVlZAYCrR1HDuvSKtcNOMyzbadYslCm1dzSYeDv3sAd7JVL8RITZ
+Gs+zTernVIWAApH4w83Kkl3/vohOU2c1aEyKbKawJ+QFtblsirxTpaPHraKu88U
2As7lZypQDAhUIupb31vYKNsd16JisjKoWbKMI68ltyIsVx6WF0sCkis8RGllmrq
WQPwQdA/ktXiqo7fWWJjFPhbrJy+I/gatwO59gxqb5ShA7S0YaVff2qgmz66KIBI
TfndZVVhtek96YJD+U2clz9N/8OVBvU6f2deBRCIxvqBeO1RXw1dKGhZQ0hlDkpm
JNQ7gf+Fkak00DhF5qK5gjOU8jey7zJFptHt58F4DJiXCV8VFxPocZPb6PEBWFcY
cvmePXx6VfZ6VYjDMXcmqinc4tqsjcqdUULTn9m4Prwxo56OI2/uGQZcVd3T992P
yQVidym8R8LKw55G9Soh/f4=
-----END CERTIFICATE-----
